; Function Attrs: nounwind uwtable
define ptr @l_Lean_IR_Borrow_infer(ptr noundef %0, ptr noundef %1) local_unnamed_addr #1 {
  %3 = ptrtoint ptr %1 to i64
  %4 = and i64 %3, 1
  %.not = icmp eq i64 %4, 0
  br i1 %.not, label %5, label %lean_inc.exit26

5:                                                ; preds = %2
  %.val.i = load i32, ptr %1, align 4, !tbaa !4
  %6 = icmp sgt i32 %.val.i, 0
  br i1 %6, label %7, label %9, !prof !11

7:                                                ; preds = %5
  %8 = add nuw i32 %.val.i, 1
  store i32 %8, ptr %1, align 4, !tbaa !4
  br label %lean_inc.exit26

9:                                                ; preds = %5
  %.not.i29 = icmp eq i32 %.val.i, 0
  br i1 %.not.i29, label %lean_inc.exit26, label %10

10:                                               ; preds = %9
  tail call void @lean_inc_ref_cold(ptr noundef nonnull %1) #6
  br label %lean_inc.exit26

lean_inc.exit26:                                  ; preds = %10, %9, %7, %2
  %11 = ptrtoint ptr %0 to i64
  %12 = and i64 %11, 1
  %.not37 = icmp eq i64 %12, 0
  br i1 %.not37, label %13, label %lean_inc.exit25

13:                                               ; preds = %lean_inc.exit26
  %.val.i30 = load i32, ptr %0, align 4, !tbaa !4
  %14 = icmp sgt i32 %.val.i30, 0
  br i1 %14, label %15, label %17, !prof !11

15:                                               ; preds = %13
  %16 = add nuw i32 %.val.i30, 1
  store i32 %16, ptr %0, align 4, !tbaa !4
  br label %lean_inc.exit25

17:                                               ; preds = %13
  %.not.i31 = icmp eq i32 %.val.i30, 0
  br i1 %.not.i31, label %lean_inc.exit25, label %18

18:                                               ; preds = %17
  tail call void @lean_inc_ref_cold(ptr noundef nonnull %0) #6
  br label %lean_inc.exit25

lean_inc.exit25:                                  ; preds = %18, %17, %15, %lean_inc.exit26
  tail call void @lean_inc_heartbeat() #6
  %19 = tail call noalias ptr @mi_malloc_small(i64 noundef 40) #6
  %20 = icmp eq ptr %19, null
  br i1 %20, label %21, label %lean_alloc_ctor.exit

21:                                               ; preds = %lean_inc.exit25
  tail call void @lean_internal_panic_out_of_memory() #7
  unreachable

lean_alloc_ctor.exit:                             ; preds = %lean_inc.exit25
  %22 = getelementptr inbounds nuw i8, ptr %19, i64 4
  store i32 1, ptr %19, align 4, !tbaa !4
  store i32 262184, ptr %22, align 4
  %23 = getelementptr inbounds nuw i8, ptr %19, i64 8
  store ptr %0, ptr %23, align 8, !tbaa !9
  %24 = getelementptr inbounds nuw i8, ptr %19, i64 16
  store ptr %1, ptr %24, align 8, !tbaa !9
  %25 = getelementptr inbounds nuw i8, ptr %19, i64 24
  store ptr inttoptr (i64 1 to ptr), ptr %25, align 8, !tbaa !9
  %26 = getelementptr inbounds nuw i8, ptr %19, i64 32
  store ptr inttoptr (i64 1 to ptr), ptr %26, align 8, !tbaa !9
  %27 = tail call ptr @l_Lean_IR_Borrow_mkInitParamMap(ptr noundef %0, ptr noundef %1)
  br i1 %.not, label %28, label %lean_dec.exit24

28:                                               ; preds = %lean_alloc_ctor.exit
  %29 = load i32, ptr %1, align 4, !tbaa !4
  %30 = icmp sgt i32 %29, 1
  br i1 %30, label %31, label %33, !prof !11

31:                                               ; preds = %28
  %32 = add nsw i32 %29, -1
  store i32 %32, ptr %1, align 4, !tbaa !4
  br label %lean_dec.exit24

33:                                               ; preds = %28
  %.not.i = icmp eq i32 %29, 0
  br i1 %.not.i, label %lean_dec.exit24, label %34

34:                                               ; preds = %33
  tail call void @lean_dec_ref_cold(ptr noundef nonnull %1) #6
  br label %lean_dec.exit24

lean_dec.exit24:                                  ; preds = %34, %33, %31, %lean_alloc_ctor.exit
  %35 = load ptr, ptr @l_Lean_IR_Borrow_mkInitParamMap___closed__3, align 8, !tbaa !9
  tail call void @lean_inc_heartbeat() #6
  %36 = tail call noalias ptr @mi_malloc_small(i64 noundef 32) #6
  %37 = icmp eq ptr %36, null
  br i1 %37, label %38, label %lean_alloc_ctor.exit33

38:                                               ; preds = %lean_dec.exit24
  tail call void @lean_internal_panic_out_of_memory() #7
  unreachable

lean_alloc_ctor.exit33:                           ; preds = %lean_dec.exit24
  %39 = getelementptr inbounds nuw i8, ptr %36, i64 4
  %40 = getelementptr inbounds nuw i8, ptr %36, i64 24
  store i64 0, ptr %40, align 8, !tbaa !13
  store i32 1, ptr %36, align 4, !tbaa !4
  store i32 131104, ptr %39, align 4
  %41 = getelementptr inbounds nuw i8, ptr %36, i64 8
  store ptr %35, ptr %41, align 8, !tbaa !9
  %42 = getelementptr inbounds nuw i8, ptr %36, i64 16
  store ptr %27, ptr %42, align 8, !tbaa !9
  %43 = tail call ptr @l_Lean_IR_Borrow_collectDecls(ptr noundef nonnull %19, ptr noundef nonnull %36)
  %44 = getelementptr inbounds nuw i8, ptr %43, i64 8
  %45 = load ptr, ptr %44, align 8, !tbaa !9
  %46 = ptrtoint ptr %45 to i64
  %47 = and i64 %46, 1
  %.not38 = icmp eq i64 %47, 0
  br i1 %.not38, label %48, label %lean_inc.exit

48:                                               ; preds = %lean_alloc_ctor.exit33
  %.val.i34 = load i32, ptr %45, align 4, !tbaa !4
  %49 = icmp sgt i32 %.val.i34, 0
  br i1 %49, label %50, label %52, !prof !11

50:                                               ; preds = %48
  %51 = add nuw i32 %.val.i34, 1
  store i32 %51, ptr %45, align 4, !tbaa !4
  br label %lean_inc.exit

52:                                               ; preds = %48
  %.not.i35 = icmp eq i32 %.val.i34, 0
  br i1 %.not.i35, label %lean_inc.exit, label %53

53:                                               ; preds = %52
  tail call void @lean_inc_ref_cold(ptr noundef nonnull %45) #6
  br label %lean_inc.exit

lean_inc.exit:                                    ; preds = %53, %52, %50, %lean_alloc_ctor.exit33
  %54 = ptrtoint ptr %43 to i64
  %55 = and i64 %54, 1
  %.not39 = icmp eq i64 %55, 0
  br i1 %.not39, label %56, label %lean_dec.exit

56:                                               ; preds = %lean_inc.exit
  %57 = load i32, ptr %43, align 4, !tbaa !4
  %58 = icmp sgt i32 %57, 1
  br i1 %58, label %59, label %61, !prof !11

59:                                               ; preds = %56
  %60 = add nsw i32 %57, -1
  store i32 %60, ptr %43, align 4, !tbaa !4
  br label %lean_dec.exit

61:                                               ; preds = %56
  %.not.i27 = icmp eq i32 %57, 0
  br i1 %.not.i27, label %lean_dec.exit, label %62

62:                                               ; preds = %61
  tail call void @lean_dec_ref_cold(ptr noundef nonnull %43) #6
  br label %lean_dec.exit

lean_dec.exit:                                    ; preds = %62, %61, %59, %lean_inc.exit
  ret ptr %45
}